; Function Attrs: mustprogress uwtable
define void @_ZN5folly14AsyncUDPSocket12applyOptionsERKSt3mapINS_15SocketOptionKeyENS_17SocketOptionValueESt4lessIS2_ESaISt4pairIKS2_S3_EEENS2_8ApplyPosE(ptr noundef nonnull readonly align 16 captures(none) dereferenceable(768) %0, ptr noundef nonnull align 8 dereferenceable(48) %1, i32 noundef %2) unnamed_addr #1 align 2 personality ptr @__gxx_personality_v0 {
  %4 = alloca %"class.std::__cxx11::basic_string", align 8
  %5 = alloca %"class.std::allocator", align 1
  %6 = getelementptr inbounds nuw i8, ptr %0, i64 240
  %.sroa.0.0.copyload = load i32, ptr %6, align 16, !tbaa !34
  %7 = tail call noundef i32 @_ZN5folly18applySocketOptionsENS_13NetworkSocketERKSt3mapINS_15SocketOptionKeyENS_17SocketOptionValueESt4lessIS2_ESaISt4pairIKS2_S3_EEENS2_8ApplyPosE(i32 %.sroa.0.0.copyload, ptr noundef nonnull align 8 dereferenceable(48) %1, i32 noundef %2)
  %.not = icmp eq i32 %7, 0
  br i1 %.not, label %25, label %8

8:                                                ; preds = %3
  %9 = tail call ptr @__cxa_allocate_exception(i64 24) #36
  call void @llvm.lifetime.start.p0(i64 32, ptr nonnull %4) #36
  call void @llvm.lifetime.start.p0(i64 1, ptr nonnull %5) #36
  invoke void @_ZNSt7__cxx1112basic_stringIcSt11char_traitsIcESaIcEEC2IS3_EEPKcRKS3_(ptr noundef nonnull align 8 dereferenceable(32) %4, ptr noundef nonnull @.str.68, ptr noundef nonnull align 1 dereferenceable(1) %5)
          to label %10 unwind label %_ZNSt7__cxx1112basic_stringIcSt11char_traitsIcESaIcEED2Ev.exit.thread

10:                                               ; preds = %8
  invoke void @_ZN5folly20AsyncSocketExceptionC2ENS0_24AsyncSocketExceptionTypeERKNSt7__cxx1112basic_stringIcSt11char_traitsIcESaIcEEEi(ptr noundef nonnull align 8 dereferenceable(24) %9, i32 noundef 8, ptr noundef nonnull align 8 dereferenceable(32) %4, i32 noundef %7)
          to label %11 unwind label %13

11:                                               ; preds = %10
  invoke void @__cxa_throw(ptr nonnull %9, ptr nonnull @_ZTIN5folly20AsyncSocketExceptionE, ptr nonnull @_ZNSt13runtime_errorD2Ev) #40
          to label %26 unwind label %13

_ZNSt7__cxx1112basic_stringIcSt11char_traitsIcESaIcEED2Ev.exit.thread: ; preds = %8
  %12 = landingpad { ptr, i32 }
          cleanup
  call void @llvm.lifetime.end.p0(i64 1, ptr nonnull %5) #36
  call void @llvm.lifetime.end.p0(i64 32, ptr nonnull %4) #36
  br label %23

13:                                               ; preds = %11, %10
  %.0 = phi i1 [ false, %11 ], [ true, %10 ]
  %14 = landingpad { ptr, i32 }
          cleanup
  %15 = load ptr, ptr %4, align 8, !tbaa !30
  %16 = getelementptr inbounds nuw i8, ptr %4, i64 16
  %17 = icmp eq ptr %15, %16
  br i1 %17, label %_ZNKSt7__cxx1112basic_stringIcSt11char_traitsIcESaIcEE11_M_is_localEv.exit.thread.i.i, label %_ZNSt7__cxx1112basic_stringIcSt11char_traitsIcESaIcEED2Ev.exit

_ZNKSt7__cxx1112basic_stringIcSt11char_traitsIcESaIcEE11_M_is_localEv.exit.thread.i.i: ; preds = %13
  %18 = getelementptr inbounds nuw i8, ptr %4, i64 8
  %19 = load i64, ptr %18, align 8, !tbaa !31
  %20 = icmp ult i64 %19, 16
  call void @llvm.assume(i1 %20)
  call void @llvm.lifetime.end.p0(i64 1, ptr nonnull %5) #36
  call void @llvm.lifetime.end.p0(i64 32, ptr nonnull %4) #36
  br i1 %.0, label %23, label %24

_ZNSt7__cxx1112basic_stringIcSt11char_traitsIcESaIcEED2Ev.exit: ; preds = %13
  %21 = load i64, ptr %16, align 8, !tbaa !33
  %22 = add i64 %21, 1
  call void @_ZdlPvm(ptr noundef %15, i64 noundef %22) #37
  call void @llvm.lifetime.end.p0(i64 1, ptr nonnull %5) #36
  call void @llvm.lifetime.end.p0(i64 32, ptr nonnull %4) #36
  br i1 %.0, label %23, label %24

23:                                               ; preds = %_ZNKSt7__cxx1112basic_stringIcSt11char_traitsIcESaIcEE11_M_is_localEv.exit.thread.i.i, %_ZNSt7__cxx1112basic_stringIcSt11char_traitsIcESaIcEED2Ev.exit.thread, %_ZNSt7__cxx1112basic_stringIcSt11char_traitsIcESaIcEED2Ev.exit
  %.pn14 = phi { ptr, i32 } [ %12, %_ZNSt7__cxx1112basic_stringIcSt11char_traitsIcESaIcEED2Ev.exit.thread ], [ %14, %_ZNSt7__cxx1112basic_stringIcSt11char_traitsIcESaIcEED2Ev.exit ], [ %14, %_ZNKSt7__cxx1112basic_stringIcSt11char_traitsIcESaIcEE11_M_is_localEv.exit.thread.i.i ]
  call void @__cxa_free_exception(ptr %9) #36
  br label %24

24:                                               ; preds = %_ZNKSt7__cxx1112basic_stringIcSt11char_traitsIcESaIcEE11_M_is_localEv.exit.thread.i.i, %23, %_ZNSt7__cxx1112basic_stringIcSt11char_traitsIcESaIcEED2Ev.exit
  %.pn13 = phi { ptr, i32 } [ %.pn14, %23 ], [ %14, %_ZNSt7__cxx1112basic_stringIcSt11char_traitsIcESaIcEED2Ev.exit ], [ %14, %_ZNKSt7__cxx1112basic_stringIcSt11char_traitsIcESaIcEE11_M_is_localEv.exit.thread.i.i ]
  resume { ptr, i32 } %.pn13

25:                                               ; preds = %3
  ret void

26:                                               ; preds = %11
  unreachable
}